target datalayout = "e-m:e-p270:32:32-p271:32:32-p272:64:64-i64:64-i128:128-f80:128-n8:16:32:64-S128"
target triple = "x86_64-pc-linux-gnu"

%struct.Node = type { i32 }
%struct.PartitionedRelPruneInfo = type { i32, i32, ptr, i32, ptr, ptr, ptr, ptr, ptr, ptr, ptr }

; Function Attrs: inlinehint nounwind willreturn memory(read) uwtable
define available_externally i32 @atoi(ptr noundef nonnull %0) #6 {
  %2 = alloca ptr, align 8
  store ptr %0, ptr %2, align 8
  %3 = load ptr, ptr %2, align 8
  %4 = call i64 @strtol(ptr noundef %3, ptr noundef null, i32 noundef 10) #9
  %5 = trunc i64 %4 to i32
  ret i32 %5
}

; Function Attrs: inlinehint nounwind uwtable
define internal ptr @newNode(i64 noundef %0, i32 noundef %1) #7 {
  %3 = alloca i64, align 8
  %4 = alloca i32, align 4
  %5 = alloca ptr, align 8
  store i64 %0, ptr %3, align 8
  store i32 %1, ptr %4, align 4
  call void @llvm.lifetime.start.p0(i64 8, ptr %5) #9
  %6 = load i64, ptr %3, align 8
  %7 = call ptr @palloc0(i64 noundef %6)
  store ptr %7, ptr %5, align 8
  %8 = load i32, ptr %4, align 4
  %9 = load ptr, ptr %5, align 8
  %10 = getelementptr inbounds nuw %struct.Node, ptr %9, i32 0, i32 0
  store i32 %8, ptr %10, align 4
  %11 = load ptr, ptr %5, align 8
  call void @llvm.lifetime.end.p0(i64 8, ptr %5) #9
  ret ptr %11
}

; Function Attrs: nounwind uwtable
define internal ptr @_readPartitionedRelPruneInfo() #0 {
  %1 = alloca ptr, align 8
  %2 = alloca ptr, align 8
  %3 = alloca i32, align 4
  call void @llvm.lifetime.start.p0(i64 8, ptr %1) #9
  %4 = call ptr @newNode(i64 noundef 80, i32 noundef 375)
  store ptr %4, ptr %1, align 8
  call void @llvm.lifetime.start.p0(i64 8, ptr %2) #9
  call void @llvm.lifetime.start.p0(i64 4, ptr %3) #9
  %5 = call ptr @pg_strtok(ptr noundef %3)
  store ptr %5, ptr %2, align 8
  %6 = call ptr @pg_strtok(ptr noundef %3)
  store ptr %6, ptr %2, align 8
  %7 = load ptr, ptr %2, align 8
  %8 = call i64 @strtoul(ptr noundef %7, ptr noundef null, i32 noundef 10) #9
  %9 = trunc i64 %8 to i32
  %10 = load ptr, ptr %1, align 8
  %11 = getelementptr inbounds nuw %struct.PartitionedRelPruneInfo, ptr %10, i32 0, i32 1
  store i32 %9, ptr %11, align 4
  %12 = call ptr @pg_strtok(ptr noundef %3)
  store ptr %12, ptr %2, align 8
  %13 = call ptr @_readBitmapset()
  %14 = load ptr, ptr %1, align 8
  %15 = getelementptr inbounds nuw %struct.PartitionedRelPruneInfo, ptr %14, i32 0, i32 2
  store ptr %13, ptr %15, align 8
  %16 = call ptr @pg_strtok(ptr noundef %3)
  store ptr %16, ptr %2, align 8
  %17 = call ptr @pg_strtok(ptr noundef %3)
  store ptr %17, ptr %2, align 8
  %18 = load ptr, ptr %2, align 8
  %19 = call i32 @atoi(ptr noundef %18) #11
  %20 = load ptr, ptr %1, align 8
  %21 = getelementptr inbounds nuw %struct.PartitionedRelPruneInfo, ptr %20, i32 0, i32 3
  store i32 %19, ptr %21, align 8
  %22 = call ptr @pg_strtok(ptr noundef %3)
  store ptr %22, ptr %2, align 8
  %23 = load ptr, ptr %1, align 8
  %24 = getelementptr inbounds nuw %struct.PartitionedRelPruneInfo, ptr %23, i32 0, i32 3
  %25 = load i32, ptr %24, align 8
  %26 = call ptr @readIntCols(i32 noundef %25)
  %27 = load ptr, ptr %1, align 8
  %28 = getelementptr inbounds nuw %struct.PartitionedRelPruneInfo, ptr %27, i32 0, i32 4
  store ptr %26, ptr %28, align 8
  %29 = call ptr @pg_strtok(ptr noundef %3)
  store ptr %29, ptr %2, align 8
  %30 = load ptr, ptr %1, align 8
  %31 = getelementptr inbounds nuw %struct.PartitionedRelPruneInfo, ptr %30, i32 0, i32 3
  %32 = load i32, ptr %31, align 8
  %33 = call ptr @readIntCols(i32 noundef %32)
  %34 = load ptr, ptr %1, align 8
  %35 = getelementptr inbounds nuw %struct.PartitionedRelPruneInfo, ptr %34, i32 0, i32 5
  store ptr %33, ptr %35, align 8
  %36 = call ptr @pg_strtok(ptr noundef %3)
  store ptr %36, ptr %2, align 8
  %37 = load ptr, ptr %1, align 8
  %38 = getelementptr inbounds nuw %struct.PartitionedRelPruneInfo, ptr %37, i32 0, i32 3
  %39 = load i32, ptr %38, align 8
  %40 = call ptr @readIntCols(i32 noundef %39)
  %41 = load ptr, ptr %1, align 8
  %42 = getelementptr inbounds nuw %struct.PartitionedRelPruneInfo, ptr %41, i32 0, i32 6
  store ptr %40, ptr %42, align 8
  %43 = call ptr @pg_strtok(ptr noundef %3)
  store ptr %43, ptr %2, align 8
  %44 = load ptr, ptr %1, align 8
  %45 = getelementptr inbounds nuw %struct.PartitionedRelPruneInfo, ptr %44, i32 0, i32 3
  %46 = load i32, ptr %45, align 8
  %47 = call ptr @readOidCols(i32 noundef %46)
  %48 = load ptr, ptr %1, align 8
  %49 = getelementptr inbounds nuw %struct.PartitionedRelPruneInfo, ptr %48, i32 0, i32 7
  store ptr %47, ptr %49, align 8
  %50 = call ptr @pg_strtok(ptr noundef %3)
  store ptr %50, ptr %2, align 8
  %51 = call ptr @nodeRead(ptr noundef null, i32 noundef 0)
  %52 = load ptr, ptr %1, align 8
  %53 = getelementptr inbounds nuw %struct.PartitionedRelPruneInfo, ptr %52, i32 0, i32 8
  store ptr %51, ptr %53, align 8
  %54 = call ptr @pg_strtok(ptr noundef %3)
  store ptr %54, ptr %2, align 8
  %55 = call ptr @nodeRead(ptr noundef null, i32 noundef 0)
  %56 = load ptr, ptr %1, align 8
  %57 = getelementptr inbounds nuw %struct.PartitionedRelPruneInfo, ptr %56, i32 0, i32 9
  store ptr %55, ptr %57, align 8
  %58 = call ptr @pg_strtok(ptr noundef %3)
  store ptr %58, ptr %2, align 8
  %59 = call ptr @_readBitmapset()
  %60 = load ptr, ptr %1, align 8
  %61 = getelementptr inbounds nuw %struct.PartitionedRelPruneInfo, ptr %60, i32 0, i32 10
  store ptr %59, ptr %61, align 8
  %62 = load ptr, ptr %1, align 8
  call void @llvm.lifetime.end.p0(i64 4, ptr %3) #9
  call void @llvm.lifetime.end.p0(i64 8, ptr %2) #9
  call void @llvm.lifetime.end.p0(i64 8, ptr %1) #9
  ret ptr %62
}