; Function Attrs: nounwind uwtable
define internal fastcc noundef ptr @_readPartitionedRelPruneInfo() unnamed_addr #0 {
  %1 = alloca i32, align 4
  %2 = tail call noundef ptr @palloc0(i64 noundef 80) #10
  store i32 375, ptr %2, align 4
  call void @llvm.lifetime.start.p0(i64 4, ptr nonnull %1) #10
  %3 = call ptr @pg_strtok(ptr noundef nonnull %1) #10
  %4 = call ptr @pg_strtok(ptr noundef nonnull %1) #10
  %5 = call i64 @strtoul(ptr noundef captures(none) %4, ptr noundef null, i32 noundef 10) #10
  %6 = trunc i64 %5 to i32
  %7 = getelementptr inbounds nuw i8, ptr %2, i64 4
  store i32 %6, ptr %7, align 4
  %8 = call ptr @pg_strtok(ptr noundef nonnull %1) #10
  %9 = call fastcc ptr @_readBitmapset()
  %10 = getelementptr inbounds nuw i8, ptr %2, i64 8
  store ptr %9, ptr %10, align 8
  %11 = call ptr @pg_strtok(ptr noundef nonnull %1) #10
  %12 = call ptr @pg_strtok(ptr noundef nonnull %1) #10
  %13 = call i64 @strtol(ptr noundef nonnull captures(none) %12, ptr noundef null, i32 noundef 10) #10
  %14 = trunc i64 %13 to i32
  %15 = getelementptr inbounds nuw i8, ptr %2, i64 16
  store i32 %14, ptr %15, align 8
  %16 = call ptr @pg_strtok(ptr noundef nonnull %1) #10
  %17 = load i32, ptr %15, align 8
  %18 = call ptr @readIntCols(i32 noundef %17)
  %19 = getelementptr inbounds nuw i8, ptr %2, i64 24
  store ptr %18, ptr %19, align 8
  %20 = call ptr @pg_strtok(ptr noundef nonnull %1) #10
  %21 = load i32, ptr %15, align 8
  %22 = call ptr @readIntCols(i32 noundef %21)
  %23 = getelementptr inbounds nuw i8, ptr %2, i64 32
  store ptr %22, ptr %23, align 8
  %24 = call ptr @pg_strtok(ptr noundef nonnull %1) #10
  %25 = load i32, ptr %15, align 8
  %26 = call ptr @readIntCols(i32 noundef %25)
  %27 = getelementptr inbounds nuw i8, ptr %2, i64 40
  store ptr %26, ptr %27, align 8
  %28 = call ptr @pg_strtok(ptr noundef nonnull %1) #10
  %29 = load i32, ptr %15, align 8
  %30 = call ptr @readOidCols(i32 noundef %29)
  %31 = getelementptr inbounds nuw i8, ptr %2, i64 48
  store ptr %30, ptr %31, align 8
  %32 = call ptr @pg_strtok(ptr noundef nonnull %1) #10
  %33 = call ptr @nodeRead(ptr noundef null, i32 noundef 0) #10
  %34 = getelementptr inbounds nuw i8, ptr %2, i64 56
  store ptr %33, ptr %34, align 8
  %35 = call ptr @pg_strtok(ptr noundef nonnull %1) #10
  %36 = call ptr @nodeRead(ptr noundef null, i32 noundef 0) #10
  %37 = getelementptr inbounds nuw i8, ptr %2, i64 64
  store ptr %36, ptr %37, align 8
  %38 = call ptr @pg_strtok(ptr noundef nonnull %1) #10
  %39 = call fastcc ptr @_readBitmapset()
  %40 = getelementptr inbounds nuw i8, ptr %2, i64 72
  store ptr %39, ptr %40, align 8
  call void @llvm.lifetime.end.p0(i64 4, ptr nonnull %1) #10
  ret ptr %2
}